; Function Attrs: nounwind uwtable
define void @Bmc_ManBCoreCollect_rec(ptr noundef readonly captures(none) %0, i32 noundef %1, i32 noundef %2, ptr noundef captures(none) %3, ptr noundef captures(none) %4) local_unnamed_addr #0 {
  %6 = getelementptr i8, ptr %0, i64 176
  %7 = getelementptr i8, ptr %0, i64 616
  %.val3157 = load i32, ptr %6, align 8
  %.val3258 = load ptr, ptr %7, align 8
  %8 = sext i32 %1 to i64
  %9 = getelementptr inbounds i32, ptr %.val3258, i64 %8
  %10 = load i32, ptr %9, align 4
  %.not59 = icmp eq i32 %10, %.val3157
  br i1 %.not59, label %.loopexit, label %.lr.ph

.lr.ph:                                           ; preds = %5
  %11 = getelementptr i8, ptr %0, i64 32
  %12 = getelementptr i8, ptr %0, i64 16
  %13 = getelementptr i8, ptr %0, i64 64
  br label %14

14:                                               ; preds = %.lr.ph, %Gia_ObjIsRo.exit.thread
  %15 = phi ptr [ %9, %.lr.ph ], [ %78, %Gia_ObjIsRo.exit.thread ]
  %16 = phi i64 [ %8, %.lr.ph ], [ %77, %Gia_ObjIsRo.exit.thread ]
  %.val3160 = phi i32 [ %.val3157, %.lr.ph ], [ %.val31, %Gia_ObjIsRo.exit.thread ]
  store i32 %.val3160, ptr %15, align 4
  %.val = load ptr, ptr %11, align 8
  %17 = getelementptr inbounds %struct.Gia_Obj_t_, ptr %.val, i64 %16
  tail call fastcc void @Bmc_ManBCoreAssignVar(ptr noundef nonnull %0, ptr noundef %17, i32 noundef %2, ptr noundef %3)
  %.val36 = load i64, ptr %17, align 4
  %18 = and i64 %.val36, 2684354559
  %narrow.i.not.i = icmp eq i64 %18, 2684354559
  br i1 %narrow.i.not.i, label %Gia_ObjIsPi.exit, label %Gia_ObjIsRo.exit.thread

Gia_ObjIsPi.exit:                                 ; preds = %14
  %19 = lshr i64 %.val36, 32
  %20 = trunc nuw i64 %19 to i32
  %21 = and i32 %20, 536870911
  %.val4.i = load i32, ptr %12, align 8
  %.val5.i = load ptr, ptr %13, align 8
  %22 = getelementptr i8, ptr %.val5.i, i64 4
  %.val5.val.i = load i32, ptr %22, align 4
  %23 = sub nsw i32 %.val5.val.i, %.val4.i
  %.not51 = icmp slt i32 %21, %23
  br i1 %.not51, label %.loopexit, label %Gia_ObjIsRo.exit

Gia_ObjIsRo.exit:                                 ; preds = %Gia_ObjIsPi.exit
  %24 = getelementptr i8, ptr %0, i64 72
  %.val4.i45 = load ptr, ptr %24, align 8
  %25 = getelementptr i8, ptr %.val4.i45, i64 4
  %.val4.val.i = load i32, ptr %25, align 4
  %26 = add i32 %.val4.val.i, %21
  %27 = sub i32 %26, %.val5.val.i
  %28 = getelementptr i8, ptr %.val4.i45, i64 8
  %.val7.val.i = load ptr, ptr %28, align 8
  %29 = sext i32 %27 to i64
  %30 = getelementptr inbounds i32, ptr %.val7.val.i, i64 %29
  %31 = load i32, ptr %30, align 4
  %32 = getelementptr inbounds nuw i8, ptr %4, i64 4
  %33 = load i32, ptr %32, align 4
  %34 = load i32, ptr %4, align 8
  %35 = icmp eq i32 %33, %34
  br i1 %35, label %36, label %.Vec_IntGrow.exit10_crit_edge.i

.Vec_IntGrow.exit10_crit_edge.i:                  ; preds = %Gia_ObjIsRo.exit
  %.phi.trans.insert.i = getelementptr inbounds nuw i8, ptr %4, i64 8
  %.pre.i = load ptr, ptr %.phi.trans.insert.i, align 8
  br label %Vec_IntPush.exit

36:                                               ; preds = %Gia_ObjIsRo.exit
  %37 = icmp slt i32 %33, 16
  br i1 %37, label %38, label %46

38:                                               ; preds = %36
  %39 = getelementptr inbounds nuw i8, ptr %4, i64 8
  %40 = load ptr, ptr %39, align 8
  %.not9.i.i = icmp eq ptr %40, null
  br i1 %.not9.i.i, label %43, label %41

41:                                               ; preds = %38
  %42 = tail call dereferenceable_or_null(64) ptr @realloc(ptr noundef nonnull %40, i64 noundef 64) #17
  br label %Vec_IntGrow.exit.i

43:                                               ; preds = %38
  %44 = tail call noalias dereferenceable_or_null(64) ptr @malloc(i64 noundef 64) #15
  br label %Vec_IntGrow.exit.i

Vec_IntGrow.exit.i:                               ; preds = %43, %41
  %45 = phi ptr [ %42, %41 ], [ %44, %43 ]
  store ptr %45, ptr %39, align 8
  store i32 16, ptr %4, align 8
  br label %Vec_IntPush.exit

46:                                               ; preds = %36
  %47 = shl nuw nsw i32 %33, 1
  %48 = getelementptr inbounds nuw i8, ptr %4, i64 8
  %49 = load ptr, ptr %48, align 8
  %.not9.i9.i = icmp eq ptr %49, null
  %50 = zext nneg i32 %47 to i64
  %51 = shl nuw nsw i64 %50, 2
  br i1 %.not9.i9.i, label %54, label %52

52:                                               ; preds = %46
  %53 = tail call ptr @realloc(ptr noundef nonnull %49, i64 noundef %51) #17
  br label %56

54:                                               ; preds = %46
  %55 = tail call noalias ptr @malloc(i64 noundef %51) #15
  br label %56

56:                                               ; preds = %54, %52
  %57 = phi ptr [ %53, %52 ], [ %55, %54 ]
  store ptr %57, ptr %48, align 8
  store i32 %47, ptr %4, align 8
  br label %Vec_IntPush.exit

Vec_IntPush.exit:                                 ; preds = %.Vec_IntGrow.exit10_crit_edge.i, %Vec_IntGrow.exit.i, %56
  %58 = phi ptr [ %.pre.i, %.Vec_IntGrow.exit10_crit_edge.i ], [ %57, %56 ], [ %45, %Vec_IntGrow.exit.i ]
  %59 = load i32, ptr %32, align 4
  %60 = add nsw i32 %59, 1
  store i32 %60, ptr %32, align 4
  %61 = sext i32 %59 to i64
  %62 = getelementptr inbounds i32, ptr %58, i64 %61
  store i32 %31, ptr %62, align 4
  br label %.loopexit

Gia_ObjIsRo.exit.thread:                          ; preds = %14
  %.val39 = load ptr, ptr %11, align 8
  %63 = ptrtoint ptr %17 to i64
  %64 = ptrtoint ptr %.val39 to i64
  %65 = sub i64 %63, %64
  %66 = sdiv exact i64 %65, 12
  %67 = trunc i64 %66 to i32
  %68 = trunc i64 %.val36 to i32
  %69 = and i32 %68, 536870911
  %70 = sub nsw i32 %67, %69
  tail call void @Bmc_ManBCoreCollect_rec(ptr noundef nonnull %0, i32 noundef %70, i32 noundef %2, ptr noundef %3, ptr noundef %4)
  %.val40 = load ptr, ptr %11, align 8
  %71 = ptrtoint ptr %.val40 to i64
  %72 = sub i64 %63, %71
  %73 = sdiv exact i64 %72, 12
  %.val3.i48 = load i64, ptr %17, align 4
  %74 = lshr i64 %.val3.i48, 32
  %75 = and i64 %74, 536870911
  %76 = sub nsw i64 %73, %75
  %.val31 = load i32, ptr %6, align 8
  %.val32 = load ptr, ptr %7, align 8
  %sext = shl i64 %76, 32
  %77 = ashr exact i64 %sext, 32
  %78 = getelementptr inbounds i32, ptr %.val32, i64 %77
  %79 = load i32, ptr %78, align 4
  %.not = icmp eq i32 %79, %.val31
  br i1 %.not, label %.loopexit, label %14

.loopexit:                                        ; preds = %Gia_ObjIsRo.exit.thread, %Gia_ObjIsPi.exit, %5, %Vec_IntPush.exit
  ret void
}